; Function Attrs: nounwind uwtable
define internal range(i32 0, 2) i32 @ext_sct_parse_clienthello(ptr readnone captures(none) %0, ptr readnone captures(none) %1, ptr noundef %2) #0 {
  %4 = icmp eq ptr %2, null
  br i1 %4, label %9, label %5

5:                                                ; preds = %3
  %6 = tail call i64 @CBS_len(ptr noundef nonnull %2) #21
  %7 = icmp eq i64 %6, 0
  %8 = zext i1 %7 to i32
  br label %9

9:                                                ; preds = %5, %3
  %10 = phi i32 [ 1, %3 ], [ %8, %5 ]
  ret i32 %10
}